target datalayout = "e-m:e-p270:32:32-p271:32:32-p272:64:64-i64:64-i128:128-f80:128-n8:16:32:64-S128"
target triple = "x86_64-pc-linux-gnu"

%struct.__va_list_tag = type { i32, i32, ptr, ptr }

@enable_dbg_outs = external global i32, align 4
@.str.15 = private unnamed_addr constant [8 x i8] c"Error: \00", align 1
@.str.16 = private unnamed_addr constant [10 x i8] c"Warning: \00", align 1
@stdout = external global ptr, align 8

; Function Attrs: inlinehint nounwind uwtable
define available_externally i32 @vprintf(ptr noalias noundef %0, ptr noundef %1) #3 {
  %3 = alloca ptr, align 8
  %4 = alloca ptr, align 8
  store ptr %0, ptr %3, align 8, !tbaa !10
  store ptr %1, ptr %4, align 8, !tbaa !117
  %5 = load ptr, ptr @stdout, align 8, !tbaa !112
  %6 = load ptr, ptr %3, align 8, !tbaa !10
  %7 = load ptr, ptr %4, align 8, !tbaa !117
  %8 = call i32 @vfprintf(ptr noundef %5, ptr noundef %6, ptr noundef %7) #10
  ret i32 %8
}

; Function Attrs: inlinehint nounwind uwtable
define internal void @Abc_Print(i32 noundef %0, ptr noundef %1, ...) #3 {
  %3 = alloca i32, align 4
  %4 = alloca ptr, align 8
  %5 = alloca [1 x %struct.__va_list_tag], align 16
  %6 = alloca i32, align 4
  %7 = alloca ptr, align 8
  store i32 %0, ptr %3, align 4, !tbaa !8
  store ptr %1, ptr %4, align 8, !tbaa !10
  call void @llvm.lifetime.start.p0(i64 24, ptr %5) #10
  %8 = load i32, ptr @enable_dbg_outs, align 4, !tbaa !8
  %9 = icmp ne i32 %8, 0
  br i1 %9, label %11, label %10

10:                                               ; preds = %2
  store i32 1, ptr %6, align 4
  br label %61

11:                                               ; preds = %2
  %12 = call i32 (...) @Abc_FrameIsBridgeMode()
  %13 = icmp ne i32 %12, 0
  br i1 %13, label %26, label %14

14:                                               ; preds = %11
  %15 = load i32, ptr %3, align 4, !tbaa !8
  %16 = icmp eq i32 %15, -1
  br i1 %16, label %17, label %19

17:                                               ; preds = %14
  %18 = call i32 (ptr, ...) @printf(ptr noundef @.str.15)
  br label %25

19:                                               ; preds = %14
  %20 = load i32, ptr %3, align 4, !tbaa !8
  %21 = icmp eq i32 %20, 0
  br i1 %21, label %22, label %24

22:                                               ; preds = %19
  %23 = call i32 (ptr, ...) @printf(ptr noundef @.str.16)
  br label %24

24:                                               ; preds = %22, %19
  br label %25

25:                                               ; preds = %24, %17
  br label %40

26:                                               ; preds = %11
  %27 = load i32, ptr %3, align 4, !tbaa !8
  %28 = icmp eq i32 %27, -1
  br i1 %28, label %29, label %32

29:                                               ; preds = %26
  %30 = load ptr, ptr @stdout, align 8, !tbaa !112
  %31 = call i32 @Gia_ManToBridgeText(ptr noundef %30, i32 noundef 7, ptr noundef @.str.15)
  br label %39

32:                                               ; preds = %26
  %33 = load i32, ptr %3, align 4, !tbaa !8
  %34 = icmp eq i32 %33, 0
  br i1 %34, label %35, label %38

35:                                               ; preds = %32
  %36 = load ptr, ptr @stdout, align 8, !tbaa !112
  %37 = call i32 @Gia_ManToBridgeText(ptr noundef %36, i32 noundef 9, ptr noundef @.str.16)
  br label %38

38:                                               ; preds = %35, %32
  br label %39

39:                                               ; preds = %38, %29
  br label %40

40:                                               ; preds = %39, %25
  %41 = getelementptr inbounds [1 x %struct.__va_list_tag], ptr %5, i64 0, i64 0
  call void @llvm.va_start.p0(ptr %41)
  %42 = call i32 (...) @Abc_FrameIsBridgeMode()
  %43 = icmp ne i32 %42, 0
  br i1 %43, label %44, label %55

44:                                               ; preds = %40
  call void @llvm.lifetime.start.p0(i64 8, ptr %7) #10
  %45 = load ptr, ptr %4, align 8, !tbaa !10
  %46 = getelementptr inbounds [1 x %struct.__va_list_tag], ptr %5, i64 0, i64 0
  %47 = call ptr @vnsprintf(ptr noundef %45, ptr noundef %46)
  store ptr %47, ptr %7, align 8, !tbaa !10
  %48 = load ptr, ptr @stdout, align 8, !tbaa !112
  %49 = load ptr, ptr %7, align 8, !tbaa !10
  %50 = call i64 @strlen(ptr noundef %49) #12
  %51 = trunc i64 %50 to i32
  %52 = load ptr, ptr %7, align 8, !tbaa !10
  %53 = call i32 @Gia_ManToBridgeText(ptr noundef %48, i32 noundef %51, ptr noundef %52)
  %54 = load ptr, ptr %7, align 8, !tbaa !10
  call void @free(ptr noundef %54) #10
  call void @llvm.lifetime.end.p0(i64 8, ptr %7) #10
  br label %59

55:                                               ; preds = %40
  %56 = load ptr, ptr %4, align 8, !tbaa !10
  %57 = getelementptr inbounds [1 x %struct.__va_list_tag], ptr %5, i64 0, i64 0
  %58 = call i32 @vprintf(ptr noundef %56, ptr noundef %57) #10
  br label %59

59:                                               ; preds = %55, %44
  %60 = getelementptr inbounds [1 x %struct.__va_list_tag], ptr %5, i64 0, i64 0
  call void @llvm.va_end.p0(ptr %60)
  store i32 0, ptr %6, align 4
  br label %61

61:                                               ; preds = %59, %10
  call void @llvm.lifetime.end.p0(i64 24, ptr %5) #10
  %62 = load i32, ptr %6, align 4
  switch i32 %62, label %64 [
    i32 0, label %63
    i32 1, label %63
  ]

63:                                               ; preds = %61, %61
  ret void

64:                                               ; preds = %61
  unreachable
}